; Function Attrs: mustprogress uwtable
define void @_ZN8QuantLib9CommodityC2EN5boost10shared_ptrISt3mapINSt7__cxx1112basic_stringIcSt11char_traitsIcESaIcEEENS1_3anyESt4lessIS9_ESaISt4pairIKS9_SA_EEEEE(ptr noundef nonnull align 8 dereferenceable(192) %this, ptr noundef %vtt, ptr nocapture noundef %secondaryCosts) unnamed_addr #3 align 2 personality ptr @__gxx_personality_v0 {
entry:
  %0 = getelementptr inbounds i8, ptr %vtt, i64 8
  tail call void @_ZN8QuantLib10InstrumentC2Ev(ptr noundef nonnull align 8 dereferenceable(104) %this, ptr noundef nonnull %0)
  %1 = load ptr, ptr %vtt, align 8
  store ptr %1, ptr %this, align 8, !tbaa !3
  %2 = getelementptr inbounds i8, ptr %vtt, i64 56
  %3 = load ptr, ptr %2, align 8
  %vbase.offset.ptr = getelementptr i8, ptr %1, i64 -24
  %vbase.offset = load i64, ptr %vbase.offset.ptr, align 8
  %add.ptr = getelementptr inbounds i8, ptr %this, i64 %vbase.offset
  store ptr %3, ptr %add.ptr, align 8, !tbaa !3
  %4 = getelementptr inbounds i8, ptr %vtt, i64 64
  %5 = load ptr, ptr %4, align 8
  %vtable3 = load ptr, ptr %this, align 8, !tbaa !3
  %vbase.offset.ptr4 = getelementptr i8, ptr %vtable3, i64 -32
  %vbase.offset5 = load i64, ptr %vbase.offset.ptr4, align 8
  %add.ptr6 = getelementptr inbounds i8, ptr %this, i64 %vbase.offset5
  store ptr %5, ptr %add.ptr6, align 8, !tbaa !3
  %secondaryCosts_ = getelementptr inbounds nuw i8, ptr %this, i64 104
  %6 = load ptr, ptr %secondaryCosts, align 8, !tbaa !6
  store ptr %6, ptr %secondaryCosts_, align 8, !tbaa !6
  %pn.i = getelementptr inbounds nuw i8, ptr %this, i64 112
  %pn3.i = getelementptr inbounds nuw i8, ptr %secondaryCosts, i64 8
  %7 = load ptr, ptr %pn3.i, align 8, !tbaa !11
  store ptr %7, ptr %pn.i, align 8, !tbaa !11
  tail call void @llvm.memset.p0.i64(ptr noundef nonnull align 8 dereferenceable(16) %secondaryCosts, i8 0, i64 16, i1 false)
  %pricingErrors_ = getelementptr inbounds nuw i8, ptr %this, i64 120
  tail call void @llvm.memset.p0.i64(ptr noundef nonnull align 8 dereferenceable(24) %pricingErrors_, i8 0, i64 24, i1 false)
  %8 = getelementptr inbounds i8, ptr %this, i64 152
  store i32 0, ptr %8, align 8, !tbaa !12
  %_M_parent.i.i.i.i.i = getelementptr inbounds i8, ptr %this, i64 160
  store ptr null, ptr %_M_parent.i.i.i.i.i, align 8, !tbaa !17
  %_M_left.i.i.i.i.i = getelementptr inbounds i8, ptr %this, i64 168
  store ptr %8, ptr %_M_left.i.i.i.i.i, align 8, !tbaa !18
  %_M_right.i.i.i.i.i = getelementptr inbounds i8, ptr %this, i64 176
  store ptr %8, ptr %_M_right.i.i.i.i.i, align 8, !tbaa !19
  %_M_node_count.i.i.i.i.i = getelementptr inbounds i8, ptr %this, i64 184
  store i64 0, ptr %_M_node_count.i.i.i.i.i, align 8, !tbaa !20
  ret void
}